CCS PCH C Compiler, Version 5.093, 4770               02-ago.-23 14:39

               Filename:   C:\Users\ivanm\OneDrive\Escritorio\Colegio Labo\PROYECTO\soft\Posible codigo principal.lst

               ROM used:   3808 bytes (6%)
                           Largest free fragment is 61724
               RAM used:   47 (1%) at main() level
                           83 (2%) worst case
               Stack used: 6 locations (5 in main + 1 for interrupts)
               Stack size: 31

00000:  GOTO   0DC4
*
00008:  MOVWF  04
0000A:  MOVFF  FD8,05
0000E:  MOVFF  FE0,06
00012:  MOVLB  0
00014:  MOVFF  FE9,0C
00018:  MOVFF  FEA,07
0001C:  MOVFF  FE1,08
00020:  MOVFF  FE2,09
00024:  MOVFF  FD9,0A
00028:  MOVFF  FDA,0B
0002C:  MOVFF  FF3,12
00030:  MOVFF  FF4,13
00034:  MOVFF  FFA,14
00038:  MOVFF  FF5,15
0003C:  MOVFF  FF6,16
00040:  MOVFF  FF7,17
00044:  MOVFF  00,0E
00048:  MOVFF  01,0F
0004C:  MOVFF  02,10
00050:  MOVFF  03,11
00054:  BTFSS  F9D.1
00056:  GOTO   0060
0005A:  BTFSC  F9E.1
0005C:  GOTO   00F8
00060:  MOVFF  0E,00
00064:  MOVFF  0F,01
00068:  MOVFF  10,02
0006C:  MOVFF  11,03
00070:  MOVFF  0C,FE9
00074:  MOVFF  07,FEA
00078:  BSF    07.7
0007A:  MOVFF  08,FE1
0007E:  MOVFF  09,FE2
00082:  MOVFF  0A,FD9
00086:  MOVFF  0B,FDA
0008A:  MOVFF  12,FF3
0008E:  MOVFF  13,FF4
00092:  MOVFF  14,FFA
00096:  MOVFF  15,FF5
0009A:  MOVFF  16,FF6
0009E:  MOVFF  17,FF7
000A2:  MOVF   04,W
000A4:  MOVFF  06,FE0
000A8:  MOVFF  05,FD8
000AC:  RETFIE 0
.................... #include "main.h"
.................... #include <18F4620.h>
.................... //////////// Standard Header file for the PIC18F4620 device ////////////////
.................... ///////////////////////////////////////////////////////////////////////////
.................... ////        (C) Copyright 1996, 2014 Custom Computer Services          ////
.................... //// This source code may only be used by licensed users of the CCS C  ////
.................... //// compiler.  This source code may only be distributed to other      ////
.................... //// licensed users of the CCS C compiler.  No other use, reproduction ////
.................... //// or distribution is permitted without written permission.          ////
.................... //// Derivative programs created using this software in object code    ////
.................... //// form are not restricted in any way.                               ////
.................... ///////////////////////////////////////////////////////////////////////////
.................... #device PIC18F4620
000AE:  CLRF   FF7
000B0:  ADDLW  BE
000B2:  MOVWF  FF6
000B4:  MOVLW  00
000B6:  ADDWFC FF7,F
000B8:  TBLRD*+
000BA:  MOVF   FF5,W
000BC:  RETURN 0
000BE:  DATA 28,0C
000C0:  DATA 01,06
000C2:  DATA 43,3A
000C4:  DATA 20,25
000C6:  DATA 66,20
000C8:  DATA 0A,48
000CA:  DATA 75,6D
000CC:  DATA 65,64
000CE:  DATA 61,64
000D0:  DATA 3A,20
000D2:  DATA 25,66
000D4:  DATA 25,25
000D6:  DATA 00,00
000D8:  DATA 4D,61
000DA:  DATA 78,54
000DC:  DATA 3A,20
000DE:  DATA 00,00
000E0:  DATA 4D,69
000E2:  DATA 6E,54
000E4:  DATA 3A,20
000E6:  DATA 00,00
000E8:  DATA 4D,61
000EA:  DATA 78,48
000EC:  DATA 3A,20
000EE:  DATA 00,00
000F0:  DATA 4D,69
000F2:  DATA 6E,48
000F4:  DATA 3A,20
000F6:  DATA 00,00
*
002F8:  MOVLW  8E
002FA:  MOVWF  00
002FC:  MOVFF  3A,01
00300:  MOVFF  39,02
00304:  CLRF   03
00306:  MOVF   01,F
00308:  BNZ   031C
0030A:  MOVFF  02,01
0030E:  CLRF   02
00310:  MOVLW  08
00312:  SUBWF  00,F
00314:  MOVF   01,F
00316:  BNZ   031C
00318:  CLRF   00
0031A:  BRA    032C
0031C:  BCF    FD8.0
0031E:  BTFSC  01.7
00320:  BRA    032A
00322:  RLCF   02,F
00324:  RLCF   01,F
00326:  DECF   00,F
00328:  BRA    031C
0032A:  BCF    01.7
0032C:  RETURN 0
0032E:  MOVF   46,W
00330:  BTFSC  FD8.2
00332:  BRA    0416
00334:  MOVWF  00
00336:  MOVF   4A,W
00338:  BTFSC  FD8.2
0033A:  BRA    0416
0033C:  ADDWF  00,F
0033E:  BNC   0348
00340:  MOVLW  81
00342:  ADDWF  00,F
00344:  BC    0416
00346:  BRA    0350
00348:  MOVLW  7F
0034A:  SUBWF  00,F
0034C:  BNC   0416
0034E:  BZ    0416
00350:  MOVFF  47,4E
00354:  MOVF   4B,W
00356:  XORWF  4E,F
00358:  BSF    47.7
0035A:  BSF    4B.7
0035C:  MOVF   49,W
0035E:  MULWF  4D
00360:  MOVFF  FF4,50
00364:  MOVF   48,W
00366:  MULWF  4C
00368:  MOVFF  FF4,03
0036C:  MOVFF  FF3,4F
00370:  MULWF  4D
00372:  MOVF   FF3,W
00374:  ADDWF  50,F
00376:  MOVF   FF4,W
00378:  ADDWFC 4F,F
0037A:  MOVLW  00
0037C:  ADDWFC 03,F
0037E:  MOVF   49,W
00380:  MULWF  4C
00382:  MOVF   FF3,W
00384:  ADDWF  50,F
00386:  MOVF   FF4,W
00388:  ADDWFC 4F,F
0038A:  MOVLW  00
0038C:  CLRF   02
0038E:  ADDWFC 03,F
00390:  ADDWFC 02,F
00392:  MOVF   47,W
00394:  MULWF  4D
00396:  MOVF   FF3,W
00398:  ADDWF  4F,F
0039A:  MOVF   FF4,W
0039C:  ADDWFC 03,F
0039E:  MOVLW  00
003A0:  ADDWFC 02,F
003A2:  MOVF   47,W
003A4:  MULWF  4C
003A6:  MOVF   FF3,W
003A8:  ADDWF  03,F
003AA:  MOVF   FF4,W
003AC:  ADDWFC 02,F
003AE:  MOVLW  00
003B0:  CLRF   01
003B2:  ADDWFC 01,F
003B4:  MOVF   49,W
003B6:  MULWF  4B
003B8:  MOVF   FF3,W
003BA:  ADDWF  4F,F
003BC:  MOVF   FF4,W
003BE:  ADDWFC 03,F
003C0:  MOVLW  00
003C2:  ADDWFC 02,F
003C4:  ADDWFC 01,F
003C6:  MOVF   48,W
003C8:  MULWF  4B
003CA:  MOVF   FF3,W
003CC:  ADDWF  03,F
003CE:  MOVF   FF4,W
003D0:  ADDWFC 02,F
003D2:  MOVLW  00
003D4:  ADDWFC 01,F
003D6:  MOVF   47,W
003D8:  MULWF  4B
003DA:  MOVF   FF3,W
003DC:  ADDWF  02,F
003DE:  MOVF   FF4,W
003E0:  ADDWFC 01,F
003E2:  INCF   00,F
003E4:  BTFSC  01.7
003E6:  BRA    03F2
003E8:  RLCF   4F,F
003EA:  RLCF   03,F
003EC:  RLCF   02,F
003EE:  RLCF   01,F
003F0:  DECF   00,F
003F2:  MOVLW  00
003F4:  BTFSS  4F.7
003F6:  BRA    040C
003F8:  INCF   03,F
003FA:  ADDWFC 02,F
003FC:  ADDWFC 01,F
003FE:  MOVF   01,W
00400:  BNZ   040C
00402:  MOVF   02,W
00404:  BNZ   040C
00406:  MOVF   03,W
00408:  BNZ   040C
0040A:  INCF   00,F
0040C:  BTFSC  4E.7
0040E:  BSF    01.7
00410:  BTFSS  4E.7
00412:  BCF    01.7
00414:  BRA    041E
00416:  CLRF   00
00418:  CLRF   01
0041A:  CLRF   02
0041C:  CLRF   03
0041E:  RETURN 0
00420:  MOVF   3D,W
00422:  BTFSC  FD8.2
00424:  BRA    0570
00426:  MOVWF  49
00428:  MOVF   41,W
0042A:  BTFSC  FD8.2
0042C:  BRA    0570
0042E:  SUBWF  49,F
00430:  BNC   043C
00432:  MOVLW  7F
00434:  ADDWF  49,F
00436:  BTFSC  FD8.0
00438:  BRA    0570
0043A:  BRA    0448
0043C:  MOVLW  81
0043E:  SUBWF  49,F
00440:  BTFSS  FD8.0
00442:  BRA    0570
00444:  BTFSC  FD8.2
00446:  BRA    0570
00448:  MOVFF  49,00
0044C:  CLRF   01
0044E:  CLRF   02
00450:  CLRF   03
00452:  CLRF   48
00454:  MOVFF  3E,47
00458:  BSF    47.7
0045A:  MOVFF  3F,46
0045E:  MOVFF  40,45
00462:  MOVLW  19
00464:  MOVWF  49
00466:  MOVF   44,W
00468:  SUBWF  45,F
0046A:  BC    0486
0046C:  MOVLW  01
0046E:  SUBWF  46,F
00470:  BC    0486
00472:  SUBWF  47,F
00474:  BC    0486
00476:  SUBWF  48,F
00478:  BC    0486
0047A:  INCF   48,F
0047C:  INCF   47,F
0047E:  INCF   46,F
00480:  MOVF   44,W
00482:  ADDWF  45,F
00484:  BRA    04D6
00486:  MOVF   43,W
00488:  SUBWF  46,F
0048A:  BC    04B0
0048C:  MOVLW  01
0048E:  SUBWF  47,F
00490:  BC    04B0
00492:  SUBWF  48,F
00494:  BC    04B0
00496:  INCF   48,F
00498:  INCF   47,F
0049A:  MOVF   43,W
0049C:  ADDWF  46,F
0049E:  MOVF   44,W
004A0:  ADDWF  45,F
004A2:  BNC   04D6
004A4:  INCF   46,F
004A6:  BNZ   04D6
004A8:  INCF   47,F
004AA:  BNZ   04D6
004AC:  INCF   48,F
004AE:  BRA    04D6
004B0:  MOVF   42,W
004B2:  IORLW  80
004B4:  SUBWF  47,F
004B6:  BC    04D4
004B8:  MOVLW  01
004BA:  SUBWF  48,F
004BC:  BC    04D4
004BE:  INCF   48,F
004C0:  MOVF   42,W
004C2:  IORLW  80
004C4:  ADDWF  47,F
004C6:  MOVF   43,W
004C8:  ADDWF  46,F
004CA:  BNC   049E
004CC:  INCF   47,F
004CE:  BNZ   049E
004D0:  INCF   48,F
004D2:  BRA    049E
004D4:  BSF    03.0
004D6:  DECFSZ 49,F
004D8:  BRA    04DC
004DA:  BRA    04F2
004DC:  BCF    FD8.0
004DE:  RLCF   45,F
004E0:  RLCF   46,F
004E2:  RLCF   47,F
004E4:  RLCF   48,F
004E6:  BCF    FD8.0
004E8:  RLCF   03,F
004EA:  RLCF   02,F
004EC:  RLCF   01,F
004EE:  RLCF   4A,F
004F0:  BRA    0466
004F2:  BTFSS  4A.0
004F4:  BRA    0502
004F6:  BCF    FD8.0
004F8:  RRCF   01,F
004FA:  RRCF   02,F
004FC:  RRCF   03,F
004FE:  RRCF   4A,F
00500:  BRA    0506
00502:  DECF   00,F
00504:  BZ    0570
00506:  BTFSC  4A.7
00508:  BRA    0546
0050A:  BCF    FD8.0
0050C:  RLCF   45,F
0050E:  RLCF   46,F
00510:  RLCF   47,F
00512:  RLCF   48,F
00514:  MOVF   44,W
00516:  SUBWF  45,F
00518:  BC    0528
0051A:  MOVLW  01
0051C:  SUBWF  46,F
0051E:  BC    0528
00520:  SUBWF  47,F
00522:  BC    0528
00524:  SUBWF  48,F
00526:  BNC   055C
00528:  MOVF   43,W
0052A:  SUBWF  46,F
0052C:  BC    0538
0052E:  MOVLW  01
00530:  SUBWF  47,F
00532:  BC    0538
00534:  SUBWF  48,F
00536:  BNC   055C
00538:  MOVF   42,W
0053A:  IORLW  80
0053C:  SUBWF  47,F
0053E:  BC    0546
00540:  MOVLW  01
00542:  SUBWF  48,F
00544:  BNC   055C
00546:  INCF   03,F
00548:  BNZ   055C
0054A:  INCF   02,F
0054C:  BNZ   055C
0054E:  INCF   01,F
00550:  BNZ   055C
00552:  INCF   00,F
00554:  BZ    0570
00556:  RRCF   01,F
00558:  RRCF   02,F
0055A:  RRCF   03,F
0055C:  MOVFF  3E,49
00560:  MOVF   42,W
00562:  XORWF  49,F
00564:  BTFSS  49.7
00566:  BRA    056C
00568:  BSF    01.7
0056A:  BRA    0578
0056C:  BCF    01.7
0056E:  BRA    0578
00570:  CLRF   00
00572:  CLRF   01
00574:  CLRF   02
00576:  CLRF   03
00578:  RETURN 0
0057A:  MOVFF  3A,41
0057E:  MOVF   3E,W
00580:  XORWF  41,F
00582:  BTFSS  41.7
00584:  BRA    0590
00586:  BCF    FD8.2
00588:  BCF    FD8.0
0058A:  BTFSC  3A.7
0058C:  BSF    FD8.0
0058E:  BRA    05EE
00590:  MOVFF  3A,41
00594:  MOVFF  3D,42
00598:  MOVF   39,W
0059A:  SUBWF  42,F
0059C:  BZ    05AA
0059E:  BTFSS  41.7
005A0:  BRA    05EE
005A2:  MOVF   FD8,W
005A4:  XORLW  01
005A6:  MOVWF  FD8
005A8:  BRA    05EE
005AA:  MOVFF  3E,42
005AE:  MOVF   3A,W
005B0:  SUBWF  42,F
005B2:  BZ    05C0
005B4:  BTFSS  41.7
005B6:  BRA    05EE
005B8:  MOVF   FD8,W
005BA:  XORLW  01
005BC:  MOVWF  FD8
005BE:  BRA    05EE
005C0:  MOVFF  3F,42
005C4:  MOVF   3B,W
005C6:  SUBWF  42,F
005C8:  BZ    05D6
005CA:  BTFSS  41.7
005CC:  BRA    05EE
005CE:  MOVF   FD8,W
005D0:  XORLW  01
005D2:  MOVWF  FD8
005D4:  BRA    05EE
005D6:  MOVFF  40,42
005DA:  MOVF   3C,W
005DC:  SUBWF  42,F
005DE:  BZ    05EC
005E0:  BTFSS  41.7
005E2:  BRA    05EE
005E4:  MOVF   FD8,W
005E6:  XORLW  01
005E8:  MOVWF  FD8
005EA:  BRA    05EE
005EC:  BCF    FD8.0
005EE:  RETURN 0
*
00632:  TBLRD*+
00634:  MOVFF  FF6,3A
00638:  MOVFF  FF7,3B
0063C:  MOVFF  FF5,46
00640:  RCALL  05F0
00642:  MOVFF  3A,FF6
00646:  MOVFF  3B,FF7
0064A:  DECFSZ 39,F
0064C:  BRA    0632
0064E:  RETURN 0
00650:  MOVF   46,W
00652:  SUBLW  B6
00654:  MOVWF  46
00656:  CLRF   03
00658:  MOVFF  47,4A
0065C:  BSF    47.7
0065E:  BCF    FD8.0
00660:  RRCF   47,F
00662:  RRCF   48,F
00664:  RRCF   49,F
00666:  RRCF   03,F
00668:  RRCF   02,F
0066A:  RRCF   01,F
0066C:  RRCF   00,F
0066E:  DECFSZ 46,F
00670:  BRA    065E
00672:  BTFSS  4A.7
00674:  BRA    068C
00676:  COMF   00,F
00678:  COMF   01,F
0067A:  COMF   02,F
0067C:  COMF   03,F
0067E:  INCF   00,F
00680:  BTFSC  FD8.2
00682:  INCF   01,F
00684:  BTFSC  FD8.2
00686:  INCF   02,F
00688:  BTFSC  FD8.2
0068A:  INCF   03,F
0068C:  GOTO   076C (RETURN)
00690:  BTFSC  FD8.1
00692:  BRA    069A
00694:  CLRF   FEA
00696:  MOVLW  4E
00698:  MOVWF  FE9
0069A:  CLRF   00
0069C:  CLRF   01
0069E:  CLRF   02
006A0:  CLRF   03
006A2:  CLRF   4E
006A4:  CLRF   4F
006A6:  CLRF   50
006A8:  CLRF   51
006AA:  MOVF   4D,W
006AC:  IORWF  4C,W
006AE:  IORWF  4B,W
006B0:  IORWF  4A,W
006B2:  BZ    070C
006B4:  MOVLW  20
006B6:  MOVWF  52
006B8:  BCF    FD8.0
006BA:  RLCF   46,F
006BC:  RLCF   47,F
006BE:  RLCF   48,F
006C0:  RLCF   49,F
006C2:  RLCF   4E,F
006C4:  RLCF   4F,F
006C6:  RLCF   50,F
006C8:  RLCF   51,F
006CA:  MOVF   4D,W
006CC:  SUBWF  51,W
006CE:  BNZ   06E0
006D0:  MOVF   4C,W
006D2:  SUBWF  50,W
006D4:  BNZ   06E0
006D6:  MOVF   4B,W
006D8:  SUBWF  4F,W
006DA:  BNZ   06E0
006DC:  MOVF   4A,W
006DE:  SUBWF  4E,W
006E0:  BNC   0700
006E2:  MOVF   4A,W
006E4:  SUBWF  4E,F
006E6:  MOVF   4B,W
006E8:  BTFSS  FD8.0
006EA:  INCFSZ 4B,W
006EC:  SUBWF  4F,F
006EE:  MOVF   4C,W
006F0:  BTFSS  FD8.0
006F2:  INCFSZ 4C,W
006F4:  SUBWF  50,F
006F6:  MOVF   4D,W
006F8:  BTFSS  FD8.0
006FA:  INCFSZ 4D,W
006FC:  SUBWF  51,F
006FE:  BSF    FD8.0
00700:  RLCF   00,F
00702:  RLCF   01,F
00704:  RLCF   02,F
00706:  RLCF   03,F
00708:  DECFSZ 52,F
0070A:  BRA    06B8
0070C:  MOVFF  4E,FEF
00710:  MOVFF  4F,FEC
00714:  MOVFF  50,FEC
00718:  MOVFF  51,FEC
0071C:  RETURN 0
0071E:  MOVF   FE9,W
00720:  MOVWF  3E
00722:  MOVF   3D,W
00724:  MOVWF  40
00726:  BZ    075A
00728:  MOVFF  3C,49
0072C:  MOVFF  3B,48
00730:  MOVFF  3A,47
00734:  MOVFF  39,46
00738:  CLRF   4D
0073A:  CLRF   4C
0073C:  MOVLW  20
0073E:  MOVWF  4B
00740:  MOVLW  82
00742:  MOVWF  4A
00744:  RCALL  032E
00746:  MOVFF  03,3C
0074A:  MOVFF  02,3B
0074E:  MOVFF  01,3A
00752:  MOVFF  00,39
00756:  DECFSZ 40,F
00758:  BRA    0728
0075A:  MOVFF  3C,49
0075E:  MOVFF  3B,48
00762:  MOVFF  3A,47
00766:  MOVFF  39,46
0076A:  BRA    0650
0076C:  MOVFF  03,3C
00770:  MOVFF  02,3B
00774:  MOVFF  01,3A
00778:  MOVFF  00,39
0077C:  BTFSS  3C.7
0077E:  BRA    079A
00780:  DECF   3E,F
00782:  BSF    3E.5
00784:  COMF   39,F
00786:  COMF   3A,F
00788:  COMF   3B,F
0078A:  COMF   3C,F
0078C:  INCF   39,F
0078E:  BTFSC  FD8.2
00790:  INCF   3A,F
00792:  BTFSC  FD8.2
00794:  INCF   3B,F
00796:  BTFSC  FD8.2
00798:  INCF   3C,F
0079A:  MOVLW  3B
0079C:  MOVWF  45
0079E:  MOVLW  9A
007A0:  MOVWF  44
007A2:  MOVLW  CA
007A4:  MOVWF  43
007A6:  CLRF   42
007A8:  MOVLW  0A
007AA:  MOVWF  40
007AC:  MOVF   3D,W
007AE:  BTFSC  FD8.2
007B0:  INCF   3E,F
007B2:  BSF    FD8.1
007B4:  CLRF   FEA
007B6:  MOVLW  39
007B8:  MOVWF  FE9
007BA:  MOVFF  3C,49
007BE:  MOVFF  3B,48
007C2:  MOVFF  3A,47
007C6:  MOVFF  39,46
007CA:  MOVFF  45,4D
007CE:  MOVFF  44,4C
007D2:  MOVFF  43,4B
007D6:  MOVFF  42,4A
007DA:  RCALL  0690
007DC:  MOVF   01,W
007DE:  MOVF   00,F
007E0:  BNZ   0800
007E2:  INCF   3D,W
007E4:  SUBWF  40,W
007E6:  BZ    0800
007E8:  MOVF   3E,W
007EA:  BZ    0804
007EC:  ANDLW  0F
007EE:  SUBWF  40,W
007F0:  BZ    07F4
007F2:  BC    0862
007F4:  BTFSC  3E.7
007F6:  BRA    0862
007F8:  BTFSC  3E.6
007FA:  BRA    0804
007FC:  MOVLW  20
007FE:  BRA    085A
00800:  MOVLW  20
00802:  ANDWF  3E,F
00804:  BTFSS  3E.5
00806:  BRA    0820
00808:  BCF    3E.5
0080A:  MOVF   3D,W
0080C:  BTFSS  FD8.2
0080E:  DECF   3E,F
00810:  MOVF   00,W
00812:  MOVWF  3E
00814:  MOVLW  2D
00816:  MOVWF  46
00818:  RCALL  05F0
0081A:  MOVF   3E,W
0081C:  MOVWF  00
0081E:  CLRF   3E
00820:  MOVF   3D,W
00822:  SUBWF  40,W
00824:  BNZ   083A
00826:  MOVF   00,W
00828:  MOVWF  3E
0082A:  MOVLW  2E
0082C:  MOVWF  46
0082E:  RCALL  05F0
00830:  MOVF   3E,W
00832:  MOVWF  00
00834:  MOVLW  20
00836:  ANDWF  3E,F
00838:  MOVLW  00
0083A:  MOVLW  30
0083C:  BTFSS  3E.5
0083E:  BRA    085A
00840:  BCF    3E.5
00842:  MOVF   3D,W
00844:  BTFSS  FD8.2
00846:  DECF   3E,F
00848:  MOVF   00,W
0084A:  MOVWF  3E
0084C:  MOVLW  2D
0084E:  MOVWF  46
00850:  RCALL  05F0
00852:  MOVF   3E,W
00854:  MOVWF  00
00856:  CLRF   3E
00858:  MOVLW  30
0085A:  ADDWF  00,F
0085C:  MOVFF  00,46
00860:  RCALL  05F0
00862:  BCF    FD8.1
00864:  MOVFF  45,49
00868:  MOVFF  44,48
0086C:  MOVFF  43,47
00870:  MOVFF  42,46
00874:  CLRF   4D
00876:  CLRF   4C
00878:  CLRF   4B
0087A:  MOVLW  0A
0087C:  MOVWF  4A
0087E:  RCALL  0690
00880:  MOVFF  03,45
00884:  MOVFF  02,44
00888:  MOVFF  01,43
0088C:  MOVFF  00,42
00890:  DECFSZ 40,F
00892:  BRA    07B2
00894:  RETURN 0
00896:  TBLRD*+
00898:  MOVF   FF5,F
0089A:  BZ    08B4
0089C:  MOVFF  FF6,39
008A0:  MOVFF  FF7,3A
008A4:  MOVFF  FF5,46
008A8:  RCALL  05F0
008AA:  MOVFF  39,FF6
008AE:  MOVFF  3A,FF7
008B2:  BRA    0896
008B4:  RETURN 0
008B6:  MOVF   3F,W
008B8:  CLRF   01
008BA:  SUBWF  3E,W
008BC:  BC    08C4
008BE:  MOVFF  3E,00
008C2:  BRA    08DC
008C4:  CLRF   00
008C6:  MOVLW  08
008C8:  MOVWF  40
008CA:  RLCF   3E,F
008CC:  RLCF   00,F
008CE:  MOVF   3F,W
008D0:  SUBWF  00,W
008D2:  BTFSC  FD8.0
008D4:  MOVWF  00
008D6:  RLCF   01,F
008D8:  DECFSZ 40,F
008DA:  BRA    08CA
008DC:  RETURN 0
008DE:  MOVF   01,W
008E0:  MOVFF  3C,3E
008E4:  MOVLW  64
008E6:  MOVWF  3F
008E8:  RCALL  08B6
008EA:  MOVFF  00,3C
008EE:  MOVF   01,W
008F0:  MOVLW  30
008F2:  BNZ   0902
008F4:  BTFSS  3D.1
008F6:  BRA    0910
008F8:  BTFSC  3D.3
008FA:  BRA    0910
008FC:  BTFSC  3D.4
008FE:  MOVLW  20
00900:  BRA    0908
00902:  BCF    3D.3
00904:  BCF    3D.4
00906:  BSF    3D.0
00908:  ADDWF  01,F
0090A:  MOVFF  01,46
0090E:  RCALL  05F0
00910:  MOVFF  3C,3E
00914:  MOVLW  0A
00916:  MOVWF  3F
00918:  RCALL  08B6
0091A:  MOVFF  00,3C
0091E:  MOVF   01,W
00920:  MOVLW  30
00922:  BNZ   0930
00924:  BTFSC  3D.3
00926:  BRA    0938
00928:  BTFSS  3D.0
0092A:  BRA    0938
0092C:  BTFSC  3D.4
0092E:  MOVLW  20
00930:  ADDWF  01,F
00932:  MOVFF  01,46
00936:  RCALL  05F0
00938:  MOVLW  30
0093A:  ADDWF  3C,F
0093C:  MOVFF  3C,46
00940:  RCALL  05F0
00942:  GOTO   0962 (RETURN)
*
00D7E:  ADDWF  FE8,W
00D80:  CLRF   FF7
00D82:  RLCF   FF7,F
00D84:  ADDLW  99
00D86:  MOVWF  FF6
00D88:  MOVLW  0D
00D8A:  ADDWFC FF7,F
00D8C:  TBLRD*-
00D8E:  MOVF   FF5,W
00D90:  MOVWF  FFA
00D92:  TBLRD*
00D94:  MOVF   FF5,W
00D96:  MOVWF  FF9
00D98:  DATA 72,0C
00D9A:  DATA A2,0C
00D9C:  DATA AC,0C
00D9E:  DATA A6,0C
00DA0:  DATA 88,0C
00DA2:  ADDWF  FE8,W
00DA4:  CLRF   FF7
00DA6:  RLCF   FF7,F
00DA8:  ADDLW  BD
00DAA:  MOVWF  FF6
00DAC:  MOVLW  0D
00DAE:  ADDWFC FF7,F
00DB0:  TBLRD*-
00DB2:  MOVF   FF5,W
00DB4:  MOVWF  FFA
00DB6:  TBLRD*
00DB8:  MOVF   FF5,W
00DBA:  MOVWF  FF9
00DBC:  DATA D0,0C
00DBE:  DATA D6,0C
00DC0:  DATA DC,0C
00DC2:  DATA E2,0C
.................... 
.................... #list
.................... 
.................... #device adc=8
.................... 
.................... #FUSES NOWDT                 	//No Watch Dog Timer
.................... #FUSES WDT128                	//Watch Dog Timer uses 1:128 Postscale
.................... #FUSES INTRC_IO              	//Internal RC Osc, no CLKOUT
.................... #FUSES NOPROTECT             	//Code not protected from reading
.................... #FUSES IESO                  	//Internal External Switch Over mode enabled
.................... #FUSES NOBROWNOUT            	//No brownout reset
.................... #FUSES BORV21                	//Brownout reset at 2.1V
.................... #FUSES NOPUT                 	//No Power Up Timer
.................... #FUSES NOCPD                 	//No EE protection
.................... #FUSES STVREN                	//Stack full/underflow will cause reset
.................... #FUSES NODEBUG               	//No Debug mode for ICD
.................... #FUSES NOLVP                 	//No low voltage prgming, B3(PIC16) or B5(PIC18) used for I/O
.................... #FUSES NOWRT                 	//Program memory not write protected
.................... #FUSES NOWRTD                	//Data EEPROM not write protected
.................... #FUSES NOEBTR                	//Memory not protected from table reads
.................... #FUSES NOCPB                 	//No Boot Block code protection
.................... #FUSES NOEBTRB               	//Boot block not protected from table reads
.................... #FUSES NOWRTC                	//configuration not registers write protected
.................... #FUSES NOWRTB                	//Boot block not write protected
.................... #FUSES FCMEN                 	//Fail-safe clock monitor enabled
.................... #FUSES NOXINST               	//Extended set extension and Indexed Addressing mode disabled (Legacy mode)
.................... #FUSES PBADEN                	//PORTB pins are configured as analog input channels on RESET
.................... #FUSES LPT1OSC               	//Timer1 configured for low-power operation
.................... #FUSES MCLR                  	//Master Clear pin enabled
.................... 
.................... #use delay(clock=8000000)
*
00118:  CLRF   FEA
0011A:  MOVLW  47
0011C:  MOVWF  FE9
0011E:  MOVF   FEF,W
00120:  BZ    013C
00122:  MOVLW  02
00124:  MOVWF  01
00126:  CLRF   00
00128:  DECFSZ 00,F
0012A:  BRA    0128
0012C:  DECFSZ 01,F
0012E:  BRA    0126
00130:  MOVLW  97
00132:  MOVWF  00
00134:  DECFSZ 00,F
00136:  BRA    0134
00138:  DECFSZ FEF,F
0013A:  BRA    0122
0013C:  RETURN 0
.................... 
.................... 
.................... #include "hw.h"
.................... #ifndef _HW_H
.................... #define _HW_H
.................... //=============================================================================
.................... // Definicion 
.................... #define LCD_DB4   PIN_D3
.................... #define LCD_DB5   PIN_D2
.................... #define LCD_DB6   PIN_D1
.................... #define LCD_DB7   PIN_D0
.................... //
.................... #define LCD_RS    PIN_C0
.................... #define LCD_RW    PIN_C1
.................... #define LCD_E     PIN_C2
.................... 
.................... //=============================================================================
.................... #endif
.................... 
.................... #include "flex_lcd.c"
.................... // flex_lcd.c
.................... 
.................... // These pins are for the Microchip PicDem2-Plus board,
.................... // which is what I used to test the driver.  Change these
.................... // pins to fit your own board.
.................... 
.................... //#define LCD_DB4   PIN_B4
.................... //#define LCD_DB5   PIN_B5
.................... //#define LCD_DB6   PIN_B6
.................... //#define LCD_DB7   PIN_B7
.................... //
.................... //#define LCD_RS    PIN_C0
.................... //#define LCD_RW    PIN_C1
.................... //#define LCD_E     PIN_C2
.................... 
.................... // If you only want a 6-pin interface to your LCD, then
.................... // connect the R/W pin on the LCD to ground, and comment
.................... // out the following line.
.................... 
.................... #define USE_LCD_RW   1
.................... 
.................... //========================================
.................... 
.................... #define lcd_type 2        // 0=5x7, 1=5x10, 2=2 lines
.................... #define lcd_line_two 0x40 // LCD RAM address for the 2nd line
.................... 
.................... 
.................... int8 const LCD_INIT_STRING[4] =
.................... {
....................  0x20 | (lcd_type << 2), // Func set: 4-bit, 2 lines, 5x8 dots
....................  0xc,                    // Display on
....................  1,                      // Clear display
....................  6                       // Increment cursor
....................  };
.................... 
.................... 
.................... //-------------------------------------
.................... void lcd_send_nibble(int8 nibble)
.................... {
.................... // Note:  !! converts an integer expression
.................... // to a boolean (1 or 0).
....................  output_bit(LCD_DB4, !!(nibble & 1));
0013E:  BTFSC  4E.0
00140:  BRA    0146
00142:  BCF    F8C.3
00144:  BRA    0148
00146:  BSF    F8C.3
00148:  BCF    F95.3
....................  output_bit(LCD_DB5, !!(nibble & 2));
0014A:  BTFSC  4E.1
0014C:  BRA    0152
0014E:  BCF    F8C.2
00150:  BRA    0154
00152:  BSF    F8C.2
00154:  BCF    F95.2
....................  output_bit(LCD_DB6, !!(nibble & 4));
00156:  BTFSC  4E.2
00158:  BRA    015E
0015A:  BCF    F8C.1
0015C:  BRA    0160
0015E:  BSF    F8C.1
00160:  BCF    F95.1
....................  output_bit(LCD_DB7, !!(nibble & 8));
00162:  BTFSC  4E.3
00164:  BRA    016A
00166:  BCF    F8C.0
00168:  BRA    016C
0016A:  BSF    F8C.0
0016C:  BCF    F95.0
.................... 
....................  delay_cycles(1);
0016E:  NOP   
....................  output_high(LCD_E);
00170:  BCF    F94.2
00172:  BSF    F8B.2
....................  delay_us(2);
00174:  BRA    0176
00176:  BRA    0178
....................  output_low(LCD_E);
00178:  BCF    F94.2
0017A:  BCF    F8B.2
0017C:  RETURN 0
.................... }
.................... 
.................... //-----------------------------------
.................... // This sub-routine is only called by lcd_read_byte().
.................... // It's not a stand-alone routine.  For example, the
.................... // R/W signal is set high by lcd_read_byte() before
.................... // this routine is called.
.................... 
.................... #ifdef USE_LCD_RW
.................... int8 lcd_read_nibble(void)
.................... {
.................... int8 retval;
.................... // Create bit variables so that we can easily set
.................... // individual bits in the retval variable.
.................... #bit retval_0 = retval.0
.................... #bit retval_1 = retval.1
.................... #bit retval_2 = retval.2
.................... #bit retval_3 = retval.3
.................... 
.................... retval = 0;
0017E:  CLRF   4F
.................... 
.................... output_high(LCD_E);
00180:  BCF    F94.2
00182:  BSF    F8B.2
.................... delay_cycles(1);
00184:  NOP   
.................... 
.................... retval_0 = input(LCD_DB4);
00186:  BSF    F95.3
00188:  BCF    4F.0
0018A:  BTFSC  F83.3
0018C:  BSF    4F.0
.................... retval_1 = input(LCD_DB5);
0018E:  BSF    F95.2
00190:  BCF    4F.1
00192:  BTFSC  F83.2
00194:  BSF    4F.1
.................... retval_2 = input(LCD_DB6);
00196:  BSF    F95.1
00198:  BCF    4F.2
0019A:  BTFSC  F83.1
0019C:  BSF    4F.2
.................... retval_3 = input(LCD_DB7);
0019E:  BSF    F95.0
001A0:  BCF    4F.3
001A2:  BTFSC  F83.0
001A4:  BSF    4F.3
.................... 
.................... output_low(LCD_E);
001A6:  BCF    F94.2
001A8:  BCF    F8B.2
.................... 
.................... return(retval);
001AA:  MOVFF  4F,01
001AE:  RETURN 0
.................... }
.................... #endif
.................... 
.................... //---------------------------------------
.................... // Read a byte from the LCD and return it.
.................... 
.................... #ifdef USE_LCD_RW
.................... int8 lcd_read_byte(void)
.................... {
.................... int8 low;
.................... int8 high;
.................... 
.................... output_high(LCD_RW);
001B0:  BCF    F94.1
001B2:  BSF    F8B.1
.................... delay_cycles(1);
001B4:  NOP   
.................... 
.................... high = lcd_read_nibble();
001B6:  RCALL  017E
001B8:  MOVFF  01,4E
.................... 
.................... low = lcd_read_nibble();
001BC:  RCALL  017E
001BE:  MOVFF  01,4D
.................... 
.................... return( (high<<4) | low);
001C2:  SWAPF  4E,W
001C4:  MOVWF  00
001C6:  MOVLW  F0
001C8:  ANDWF  00,F
001CA:  MOVF   00,W
001CC:  IORWF  4D,W
001CE:  MOVWF  01
001D0:  GOTO   01DA (RETURN)
.................... }
.................... #endif
.................... 
.................... //----------------------------------------
.................... // Send a byte to the LCD.
.................... void lcd_send_byte(int8 address, int8 n)
.................... {
.................... output_low(LCD_RS);
001D4:  BCF    F94.0
001D6:  BCF    F8B.0
.................... 
.................... #ifdef USE_LCD_RW
.................... while(bit_test(lcd_read_byte(),7)) ;
001D8:  BRA    01B0
001DA:  MOVFF  01,4D
001DE:  BTFSC  01.7
001E0:  BRA    01D8
.................... #else
.................... delay_us(60);
.................... #endif
.................... 
.................... if(address)
001E2:  MOVF   4B,F
001E4:  BZ    01EC
....................    output_high(LCD_RS);
001E6:  BCF    F94.0
001E8:  BSF    F8B.0
001EA:  BRA    01F0
.................... else
....................    output_low(LCD_RS);
001EC:  BCF    F94.0
001EE:  BCF    F8B.0
.................... 
....................  delay_cycles(1);
001F0:  NOP   
.................... 
.................... #ifdef USE_LCD_RW
.................... output_low(LCD_RW);
001F2:  BCF    F94.1
001F4:  BCF    F8B.1
.................... delay_cycles(1);
001F6:  NOP   
.................... #endif
.................... 
.................... output_low(LCD_E);
001F8:  BCF    F94.2
001FA:  BCF    F8B.2
.................... 
.................... lcd_send_nibble(n >> 4);
001FC:  SWAPF  4C,W
001FE:  MOVWF  4D
00200:  MOVLW  0F
00202:  ANDWF  4D,F
00204:  MOVFF  4D,4E
00208:  RCALL  013E
.................... lcd_send_nibble(n & 0xf);
0020A:  MOVF   4C,W
0020C:  ANDLW  0F
0020E:  MOVWF  4D
00210:  MOVWF  4E
00212:  RCALL  013E
00214:  RETURN 0
.................... }
.................... 
.................... //----------------------------
.................... void lcd_init(void)
.................... {
.................... int8 i;
.................... 
.................... output_low(LCD_RS);
00216:  BCF    F94.0
00218:  BCF    F8B.0
.................... 
.................... #ifdef USE_LCD_RW
.................... output_low(LCD_RW);
0021A:  BCF    F94.1
0021C:  BCF    F8B.1
.................... #endif
.................... 
.................... output_low(LCD_E);
0021E:  BCF    F94.2
00220:  BCF    F8B.2
.................... 
.................... delay_ms(15);
00222:  MOVLW  0F
00224:  MOVWF  47
00226:  RCALL  0118
.................... 
.................... for(i=0 ;i < 3; i++)
00228:  CLRF   2F
0022A:  MOVF   2F,W
0022C:  SUBLW  02
0022E:  BNC   0240
....................    {
....................     lcd_send_nibble(0x03);
00230:  MOVLW  03
00232:  MOVWF  4E
00234:  RCALL  013E
....................     delay_ms(5);
00236:  MOVLW  05
00238:  MOVWF  47
0023A:  RCALL  0118
0023C:  INCF   2F,F
0023E:  BRA    022A
....................    }
.................... 
.................... lcd_send_nibble(0x02);
00240:  MOVLW  02
00242:  MOVWF  4E
00244:  RCALL  013E
.................... 
.................... for(i=0; i < sizeof(LCD_INIT_STRING); i++)
00246:  CLRF   2F
00248:  MOVF   2F,W
0024A:  SUBLW  03
0024C:  BNC   0260
....................    {
....................     lcd_send_byte(0, LCD_INIT_STRING[i]);
0024E:  CLRF   03
00250:  MOVF   2F,W
00252:  RCALL  00AE
00254:  MOVWF  30
00256:  CLRF   4B
00258:  MOVWF  4C
0025A:  RCALL  01D4
.................... 
....................     // If the R/W signal is not used, then
....................     // the busy bit can't be polled.  One of
....................     // the init commands takes longer than
....................     // the hard-coded delay of 60 us, so in
....................     // that case, lets just do a 5 ms delay
....................     // after all four of them.
....................     #ifndef USE_LCD_RW
0025C:  INCF   2F,F
0025E:  BRA    0248
....................     delay_ms(5);
....................     #endif
....................    }
00260:  GOTO   0E74 (RETURN)
.................... 
.................... }
.................... 
.................... //----------------------------
.................... 
.................... void lcd_gotoxy(int8 x, int8 y)
.................... {
.................... int8 address;
.................... 
.................... if(y != 1)
00264:  DECFSZ 48,W
00266:  BRA    026A
00268:  BRA    0270
....................    address = lcd_line_two;
0026A:  MOVLW  40
0026C:  MOVWF  49
0026E:  BRA    0272
.................... else
....................    address=0;
00270:  CLRF   49
.................... 
.................... address += x-1;
00272:  MOVLW  01
00274:  SUBWF  47,W
00276:  ADDWF  49,F
.................... lcd_send_byte(0, 0x80 | address);
00278:  MOVF   49,W
0027A:  IORLW  80
0027C:  MOVWF  4A
0027E:  CLRF   4B
00280:  MOVWF  4C
00282:  RCALL  01D4
00284:  RETURN 0
.................... }
.................... 
.................... //-----------------------------
.................... void lcd_putc(char c)
.................... {
....................  switch(c)
*
005F0:  MOVF   46,W
005F2:  XORLW  0C
005F4:  BZ    0600
005F6:  XORLW  06
005F8:  BZ    0610
005FA:  XORLW  02
005FC:  BZ    061C
005FE:  BRA    0626
....................    {
....................     case '\f': //clear
....................       lcd_send_byte(0,1);
00600:  CLRF   4B
00602:  MOVLW  01
00604:  MOVWF  4C
00606:  RCALL  01D4
....................       delay_ms(2);
00608:  MOVLW  02
0060A:  MOVWF  47
0060C:  RCALL  0118
....................       break;
0060E:  BRA    0630
.................... 
....................     case '\n': //enter
....................        lcd_gotoxy(1,2);
00610:  MOVLW  01
00612:  MOVWF  47
00614:  MOVLW  02
00616:  MOVWF  48
00618:  RCALL  0264
....................        break;
0061A:  BRA    0630
.................... 
....................     case '\b': //lcd_gotoxy(1,1);
....................        lcd_send_byte(0,0x10);
0061C:  CLRF   4B
0061E:  MOVLW  10
00620:  MOVWF  4C
00622:  RCALL  01D4
....................        break;
00624:  BRA    0630
.................... 
....................     default:
....................        lcd_send_byte(1,c);
00626:  MOVLW  01
00628:  MOVWF  4B
0062A:  MOVFF  46,4C
0062E:  RCALL  01D4
....................        break;
....................    }
00630:  RETURN 0
.................... }
.................... 
.................... //------------------------------
.................... #ifdef USE_LCD_RW
.................... char lcd_getc(int8 x, int8 y)
.................... {
.................... char value;
.................... 
.................... lcd_gotoxy(x,y);
.................... 
.................... // Wait until busy flag is low.
.................... while(bit_test(lcd_read_byte(),7));
.................... 
.................... output_high(LCD_RS);
.................... value = lcd_read_byte();
.................... output_low(lcd_RS);
.................... 
.................... return(value);
.................... }
.................... #endif
.................... 
.................... void lcd_setcursor_vb(short visible, short blink) { 
....................   lcd_send_byte(0, 0xC|(visible<<1)|blink); 
.................... } 
.................... 
.................... 
.................... 
.................... int1 on = 1;
.................... int1 opressed = 0;
.................... int1 pressed = 0;
.................... int1 tick = 0;
.................... int8 c1=0;
.................... int8 c2=0;
.................... int8 mode = 0;
.................... int8 maxt = 75;
.................... int8 mint = 25;
.................... int8 maxh = 75;
.................... int8 minh = 25;
.................... float oldtemp = 0;
.................... float oldhum = 0;
.................... int8 selectedo = 0;
.................... int8 line = 0;
.................... 
.................... int8 CheckBut(int8 selectedb=100){
*
00286:  SETF   F94
00288:  MOVFF  F82,30
0028C:  CLRF   31
....................    
....................    int8 a = input_c();
....................    int8 b = 0;
....................    int8 i; 
....................    if(selectedb == 100){
0028E:  MOVF   2F,W
00290:  SUBLW  64
00292:  BNZ   02C2
....................       for(i = 3; i<8;i++){
00294:  MOVLW  03
00296:  MOVWF  32
00298:  MOVF   32,W
0029A:  SUBLW  07
0029C:  BNC   02C0
....................       if(bit_test(a,i)){
0029E:  MOVFF  30,00
002A2:  MOVF   32,W
002A4:  MOVWF  01
002A6:  BZ    02B0
002A8:  BCF    FD8.0
002AA:  RRCF   00,F
002AC:  DECFSZ 01,F
002AE:  BRA    02A8
002B0:  BTFSS  00.0
002B2:  BRA    02BC
....................          b = i-2;
002B4:  MOVLW  02
002B6:  SUBWF  32,W
002B8:  MOVWF  31
....................          break;
002BA:  BRA    02C0
....................          }
002BC:  INCF   32,F
002BE:  BRA    0298
....................       }
....................    }
002C0:  BRA    02F2
....................    else{
....................       switch(selectedb){
002C2:  MOVF   2F,W
002C4:  XORLW  09
002C6:  BZ    02CA
002C8:  BRA    02D4
....................       case 9:
....................          b=(input(PIN_D7));
002CA:  BSF    F95.7
002CC:  CLRF   31
002CE:  BTFSC  F83.7
002D0:  INCF   31,F
....................          break;
002D2:  BRA    02F2
....................       default:
....................          b = bit_test(a,selectedb+2);
002D4:  MOVLW  02
002D6:  ADDWF  2F,W
002D8:  MOVWF  33
002DA:  MOVFF  30,00
002DE:  MOVF   33,W
002E0:  MOVWF  01
002E2:  BZ    02EC
002E4:  BCF    FD8.0
002E6:  RRCF   00,F
002E8:  DECFSZ 01,F
002EA:  BRA    02E4
002EC:  CLRF   31
002EE:  BTFSC  00.0
002F0:  INCF   31,F
....................          break;
....................       }
....................    }
....................    return(b);
002F2:  MOVFF  31,01
002F6:  RETURN 0
.................... }
.................... 
.................... void WriteConfig(int8 selectedo, int8 lines, int8 v){
....................             if (selectedo==lines) printf(LCD_PUTC,"< ");
*
00946:  MOVF   3A,W
00948:  SUBWF  39,W
0094A:  BNZ   0958
0094C:  MOVLW  3C
0094E:  MOVWF  46
00950:  RCALL  05F0
00952:  MOVLW  20
00954:  MOVWF  46
00956:  RCALL  05F0
....................             printf (LCD_PUTC, "%u", v);
00958:  MOVFF  3B,3C
0095C:  MOVLW  1B
0095E:  MOVWF  3D
00960:  BRA    08DE
....................             if (selectedo==lines) printf(LCD_PUTC," >");
00962:  MOVF   3A,W
00964:  SUBWF  39,W
00966:  BNZ   0974
00968:  MOVLW  20
0096A:  MOVWF  46
0096C:  RCALL  05F0
0096E:  MOVLW  3E
00970:  MOVWF  46
00972:  RCALL  05F0
....................             printf (LCD_PUTC, "\n");
00974:  MOVLW  0A
00976:  MOVWF  46
00978:  RCALL  05F0
0097A:  RETURN 0
.................... }
.................... 
.................... void Update(int8 but = 0){
....................    
....................    //Default
....................    switch(mode){
0097C:  MOVF   1C,W
0097E:  XORLW  00
00980:  BZ    0990
00982:  XORLW  01
00984:  BTFSC  FD8.2
00986:  BRA    0C5C
00988:  XORLW  02
0098A:  BTFSC  FD8.2
0098C:  BRA    0D7A
0098E:  BRA    0D7A
....................       case 0:
....................          set_adc_channel(0);
00990:  MOVLW  00
00992:  MOVWF  01
00994:  MOVF   FC2,W
00996:  ANDLW  C3
00998:  IORWF  01,W
0099A:  MOVWF  FC2
....................          delay_us(10);
0099C:  MOVLW  06
0099E:  MOVWF  00
009A0:  DECFSZ 00,F
009A2:  BRA    09A0
009A4:  NOP   
....................          float temp = (float)read_adc()* 100 / 255;
009A6:  BSF    FC2.1
009A8:  BTFSC  FC2.1
009AA:  BRA    09A8
009AC:  MOVF   FC4,W
009AE:  CLRF   3A
009B0:  MOVWF  39
009B2:  RCALL  02F8
009B4:  MOVFF  03,3C
009B8:  MOVFF  02,3B
009BC:  MOVFF  01,3A
009C0:  MOVFF  00,39
009C4:  MOVFF  03,49
009C8:  MOVFF  02,48
009CC:  MOVFF  01,47
009D0:  MOVFF  00,46
009D4:  CLRF   4D
009D6:  CLRF   4C
009D8:  MOVLW  48
009DA:  MOVWF  4B
009DC:  MOVLW  85
009DE:  MOVWF  4A
009E0:  RCALL  032E
009E2:  MOVFF  03,3C
009E6:  MOVFF  02,3B
009EA:  MOVFF  01,3A
009EE:  MOVFF  00,39
009F2:  MOVFF  03,40
009F6:  MOVFF  02,3F
009FA:  MOVFF  01,3E
009FE:  MOVFF  00,3D
00A02:  CLRF   44
00A04:  CLRF   43
00A06:  MOVLW  7F
00A08:  MOVWF  42
00A0A:  MOVLW  86
00A0C:  MOVWF  41
00A0E:  RCALL  0420
00A10:  MOVFF  03,33
00A14:  MOVFF  02,32
00A18:  MOVFF  01,31
00A1C:  MOVFF  00,30
....................          set_adc_channel(1);
00A20:  MOVLW  04
00A22:  MOVWF  01
00A24:  MOVF   FC2,W
00A26:  ANDLW  C3
00A28:  IORWF  01,W
00A2A:  MOVWF  FC2
....................          delay_us(10);
00A2C:  MOVLW  06
00A2E:  MOVWF  00
00A30:  DECFSZ 00,F
00A32:  BRA    0A30
00A34:  NOP   
....................          float hum = (float)read_adc()* 100 / 255;
00A36:  BSF    FC2.1
00A38:  BTFSC  FC2.1
00A3A:  BRA    0A38
00A3C:  MOVF   FC4,W
00A3E:  CLRF   3A
00A40:  MOVWF  39
00A42:  RCALL  02F8
00A44:  MOVFF  03,3C
00A48:  MOVFF  02,3B
00A4C:  MOVFF  01,3A
00A50:  MOVFF  00,39
00A54:  MOVFF  03,49
00A58:  MOVFF  02,48
00A5C:  MOVFF  01,47
00A60:  MOVFF  00,46
00A64:  CLRF   4D
00A66:  CLRF   4C
00A68:  MOVLW  48
00A6A:  MOVWF  4B
00A6C:  MOVLW  85
00A6E:  MOVWF  4A
00A70:  RCALL  032E
00A72:  MOVFF  03,3C
00A76:  MOVFF  02,3B
00A7A:  MOVFF  01,3A
00A7E:  MOVFF  00,39
00A82:  MOVFF  03,40
00A86:  MOVFF  02,3F
00A8A:  MOVFF  01,3E
00A8E:  MOVFF  00,3D
00A92:  CLRF   44
00A94:  CLRF   43
00A96:  MOVLW  7F
00A98:  MOVWF  42
00A9A:  MOVLW  86
00A9C:  MOVWF  41
00A9E:  RCALL  0420
00AA0:  MOVFF  03,37
00AA4:  MOVFF  02,36
00AA8:  MOVFF  01,35
00AAC:  MOVFF  00,34
....................          //Regar
....................          if(hum<minh)output_bit(PIN_B3,1);
00AB0:  CLRF   3A
00AB2:  MOVFF  20,39
00AB6:  RCALL  02F8
00AB8:  MOVFF  37,3C
00ABC:  MOVFF  36,3B
00AC0:  MOVFF  35,3A
00AC4:  MOVFF  34,39
00AC8:  MOVFF  03,40
00ACC:  MOVFF  02,3F
00AD0:  MOVFF  01,3E
00AD4:  MOVFF  00,3D
00AD8:  RCALL  057A
00ADA:  BNC   0AE2
00ADC:  BSF    F8A.3
00ADE:  BCF    F93.3
00AE0:  BRA    0B12
....................          else if(hum>maxh) output_bit(PIN_B3,0);
00AE2:  CLRF   3A
00AE4:  MOVFF  1F,39
00AE8:  RCALL  02F8
00AEA:  MOVFF  03,3C
00AEE:  MOVFF  02,3B
00AF2:  MOVFF  01,3A
00AF6:  MOVFF  00,39
00AFA:  MOVFF  37,40
00AFE:  MOVFF  36,3F
00B02:  MOVFF  35,3E
00B06:  MOVFF  34,3D
00B0A:  RCALL  057A
00B0C:  BNC   0B12
00B0E:  BCF    F8A.3
00B10:  BCF    F93.3
....................          if(temp<mint)output_bit(PIN_B1,1);
00B12:  CLRF   3A
00B14:  MOVFF  1E,39
00B18:  CALL   02F8
00B1C:  MOVFF  33,3C
00B20:  MOVFF  32,3B
00B24:  MOVFF  31,3A
00B28:  MOVFF  30,39
00B2C:  MOVFF  03,40
00B30:  MOVFF  02,3F
00B34:  MOVFF  01,3E
00B38:  MOVFF  00,3D
00B3C:  RCALL  057A
00B3E:  BNC   0B46
00B40:  BSF    F8A.1
00B42:  BCF    F93.1
00B44:  BRA    0B78
....................          else if(temp>maxt) output_bit(PIN_B1,0);
00B46:  CLRF   3A
00B48:  MOVFF  1D,39
00B4C:  CALL   02F8
00B50:  MOVFF  03,3C
00B54:  MOVFF  02,3B
00B58:  MOVFF  01,3A
00B5C:  MOVFF  00,39
00B60:  MOVFF  33,40
00B64:  MOVFF  32,3F
00B68:  MOVFF  31,3E
00B6C:  MOVFF  30,3D
00B70:  RCALL  057A
00B72:  BNC   0B78
00B74:  BCF    F8A.1
00B76:  BCF    F93.1
....................          if(temp != oldtemp || hum != oldhum){
00B78:  MOVFF  33,3C
00B7C:  MOVFF  32,3B
00B80:  MOVFF  31,3A
00B84:  MOVFF  30,39
00B88:  MOVFF  24,40
00B8C:  MOVFF  23,3F
00B90:  MOVFF  22,3E
00B94:  MOVFF  21,3D
00B98:  RCALL  057A
00B9A:  BNZ   0BC0
00B9C:  MOVFF  37,3C
00BA0:  MOVFF  36,3B
00BA4:  MOVFF  35,3A
00BA8:  MOVFF  34,39
00BAC:  MOVFF  28,40
00BB0:  MOVFF  27,3F
00BB4:  MOVFF  26,3E
00BB8:  MOVFF  25,3D
00BBC:  RCALL  057A
00BBE:  BZ    0C46
....................          
....................             lcd_gotoxy(1,1);
00BC0:  MOVLW  01
00BC2:  MOVWF  47
00BC4:  MOVWF  48
00BC6:  CALL   0264
....................             printf(LCD_PUTC,"\f");
00BCA:  MOVLW  0C
00BCC:  MOVWF  46
00BCE:  RCALL  05F0
....................             printf(LCD_PUTC,"C: %f \nHumedad: %f%%", temp, hum);
00BD0:  MOVLW  C2
00BD2:  MOVWF  FF6
00BD4:  MOVLW  00
00BD6:  MOVWF  FF7
00BD8:  MOVLW  03
00BDA:  MOVWF  39
00BDC:  RCALL  0632
00BDE:  MOVLW  89
00BE0:  MOVWF  FE9
00BE2:  MOVFF  33,3C
00BE6:  MOVFF  32,3B
00BEA:  MOVFF  31,3A
00BEE:  MOVFF  30,39
00BF2:  MOVLW  02
00BF4:  MOVWF  3D
00BF6:  RCALL  071E
00BF8:  MOVLW  C7
00BFA:  MOVWF  FF6
00BFC:  MOVLW  00
00BFE:  MOVWF  FF7
00C00:  MOVLW  0B
00C02:  MOVWF  39
00C04:  RCALL  0632
00C06:  MOVLW  89
00C08:  MOVWF  FE9
00C0A:  MOVFF  37,3C
00C0E:  MOVFF  36,3B
00C12:  MOVFF  35,3A
00C16:  MOVFF  34,39
00C1A:  MOVLW  02
00C1C:  MOVWF  3D
00C1E:  RCALL  071E
00C20:  MOVLW  25
00C22:  MOVWF  46
00C24:  RCALL  05F0
....................             oldtemp= temp;
00C26:  MOVFF  33,24
00C2A:  MOVFF  32,23
00C2E:  MOVFF  31,22
00C32:  MOVFF  30,21
....................             oldhum = hum;
00C36:  MOVFF  37,28
00C3A:  MOVFF  36,27
00C3E:  MOVFF  35,26
00C42:  MOVFF  34,25
....................          }
....................             if(but && !pressed){
00C46:  MOVF   2F,F
00C48:  BZ    0C5A
00C4A:  BTFSC  19.2
00C4C:  BRA    0C5A
....................                printf(LCD_PUTC,"\f");
00C4E:  MOVLW  0C
00C50:  MOVWF  46
00C52:  RCALL  05F0
....................                pressed = 1;
00C54:  BSF    19.2
....................                mode = 1;
00C56:  MOVLW  01
00C58:  MOVWF  1C
....................             }
....................       break;
00C5A:  BRA    0D7A
....................       
....................       //Config
....................       case 1:
....................          if(but){
00C5C:  MOVF   2F,F
00C5E:  BTFSC  FD8.2
00C60:  BRA    0D78
....................             int8 selectedv = 0;
00C62:  CLRF   38
....................             switch(but){
00C64:  MOVLW  01
00C66:  SUBWF  2F,W
00C68:  ADDLW  FB
00C6A:  BC    0CC4
00C6C:  ADDLW  05
00C6E:  GOTO   0D7E
....................                case 1:
....................                   if(!pressed){
00C72:  BTFSC  19.2
00C74:  BRA    0C86
....................                      if(line>0) line -=1;
00C76:  MOVF   2A,F
00C78:  BZ    0C7E
00C7A:  MOVLW  01
00C7C:  SUBWF  2A,F
....................                      if(selectedo>0){
00C7E:  MOVF   29,F
00C80:  BZ    0C86
....................                         selectedo -=1;
00C82:  MOVLW  01
00C84:  SUBWF  29,F
....................                      }
....................                   }
....................                break;
00C86:  BRA    0CC4
....................                case 5:
....................                   if(!pressed){
00C88:  BTFSC  19.2
00C8A:  BRA    0CA0
....................                      if(line<2) line +=1;
00C8C:  MOVF   2A,W
00C8E:  SUBLW  01
00C90:  BNC   0C96
00C92:  MOVLW  01
00C94:  ADDWF  2A,F
....................                      if(selectedo<3){
00C96:  MOVF   29,W
00C98:  SUBLW  02
00C9A:  BNC   0CA0
....................                         selectedo +=1;
00C9C:  MOVLW  01
00C9E:  ADDWF  29,F
....................                      }
....................                   }
....................                break;
00CA0:  BRA    0CC4
....................                case 2:
....................                   selectedv =-1;
00CA2:  SETF   38
....................                break;
00CA4:  BRA    0CC4
....................                case 4:
....................                   selectedv =1;
00CA6:  MOVLW  01
00CA8:  MOVWF  38
....................                break;
00CAA:  BRA    0CC4
....................                
....................                case 3:
....................                   if(!pressed){
00CAC:  BTFSC  19.2
00CAE:  BRA    0CC4
....................                      pressed = 1;
00CB0:  BSF    19.2
....................                      mode = 0;
00CB2:  CLRF   1C
....................                      oldtemp= 0;
00CB4:  CLRF   24
00CB6:  CLRF   23
00CB8:  CLRF   22
00CBA:  CLRF   21
....................                      oldhum = 0;
00CBC:  CLRF   28
00CBE:  CLRF   27
00CC0:  CLRF   26
00CC2:  CLRF   25
....................                   }
....................                break;
....................             }
....................             switch(selectedo){
00CC4:  MOVF   29,W
00CC6:  ADDLW  FC
00CC8:  BC    0CF0
00CCA:  ADDLW  04
00CCC:  GOTO   0DA2
....................                case 0: maxt+=selectedv;
00CD0:  MOVF   38,W
00CD2:  ADDWF  1D,F
....................                break;
00CD4:  BRA    0CF0
....................                case 1: mint+=selectedv;
00CD6:  MOVF   38,W
00CD8:  ADDWF  1E,F
....................                break;
00CDA:  BRA    0CF0
....................                case 2: maxh+=selectedv;
00CDC:  MOVF   38,W
00CDE:  ADDWF  1F,F
....................                break;
00CE0:  BRA    0CF0
....................                case 3: minh+=selectedv;
00CE2:  MOVF   38,W
00CE4:  ADDWF  20,F
....................                break;
00CE6:  BRA    0CF0
....................                pressed = 1;
00CE8:  BSF    19.2
....................                printf(LCD_PUTC,"\f");
00CEA:  MOVLW  0C
00CEC:  MOVWF  46
00CEE:  RCALL  05F0
....................             }
....................             if(line<1){
00CF0:  MOVF   2A,F
00CF2:  BNZ   0D0A
....................                printf(LCD_PUTC,"MaxT: ");
00CF4:  MOVLW  D8
00CF6:  MOVWF  FF6
00CF8:  MOVLW  00
00CFA:  MOVWF  FF7
00CFC:  RCALL  0896
....................                WriteConfig(selectedo,0,maxt);
00CFE:  MOVFF  29,39
00D02:  CLRF   3A
00D04:  MOVFF  1D,3B
00D08:  RCALL  0946
....................             }
....................             if(line<2){
00D0A:  MOVF   2A,W
00D0C:  SUBLW  01
00D0E:  BNC   0D28
....................                printf(LCD_PUTC,"MinT: ");
00D10:  MOVLW  E0
00D12:  MOVWF  FF6
00D14:  MOVLW  00
00D16:  MOVWF  FF7
00D18:  RCALL  0896
....................                WriteConfig(selectedo,1,mint);
00D1A:  MOVFF  29,39
00D1E:  MOVLW  01
00D20:  MOVWF  3A
00D22:  MOVFF  1E,3B
00D26:  RCALL  0946
....................             }
....................             if(line < 3 && line >  0){
00D28:  MOVF   2A,W
00D2A:  SUBLW  02
00D2C:  BNC   0D4A
00D2E:  MOVF   2A,F
00D30:  BZ    0D4A
....................                printf(LCD_PUTC,"MaxH: ");
00D32:  MOVLW  E8
00D34:  MOVWF  FF6
00D36:  MOVLW  00
00D38:  MOVWF  FF7
00D3A:  RCALL  0896
....................                WriteConfig(selectedo,2,maxh);
00D3C:  MOVFF  29,39
00D40:  MOVLW  02
00D42:  MOVWF  3A
00D44:  MOVFF  1F,3B
00D48:  RCALL  0946
....................             }
....................             if(line < 4 && line >  1){
00D4A:  MOVF   2A,W
00D4C:  SUBLW  03
00D4E:  BNC   0D6E
00D50:  MOVF   2A,W
00D52:  SUBLW  01
00D54:  BC    0D6E
....................                printf(LCD_PUTC,"MinH: ");
00D56:  MOVLW  F0
00D58:  MOVWF  FF6
00D5A:  MOVLW  00
00D5C:  MOVWF  FF7
00D5E:  RCALL  0896
....................                WriteConfig(selectedo,3,minh);
00D60:  MOVFF  29,39
00D64:  MOVLW  03
00D66:  MOVWF  3A
00D68:  MOVFF  20,3B
00D6C:  RCALL  0946
....................             }
....................             lcd_gotoxy(1,1);
00D6E:  MOVLW  01
00D70:  MOVWF  47
00D72:  MOVWF  48
00D74:  CALL   0264
....................          }
....................          break;
00D78:  BRA    0D7A
....................          //OFF
....................       
....................          //Debug
....................          case 3:
....................          
....................          break;
....................          
.................... }
00D7A:  GOTO   0EAE (RETURN)
....................    
.................... }
.................... 
.................... 
.................... 
....................    
.................... //100us
.................... #int_TIMER2
.................... void  TIMER2_isr(void) 
.................... {
....................    if (c1 >= 9){
*
000F8:  MOVF   1A,W
000FA:  SUBLW  08
000FC:  BC    0110
....................    //1ms
....................       c1=0;
000FE:  CLRF   1A
....................          if (c2 >= 250){
00100:  MOVF   1B,W
00102:  SUBLW  F9
00104:  BC    010C
....................             c2 = 0;
00106:  CLRF   1B
....................             tick = 1;
00108:  BSF    19.3
....................          }
0010A:  BRA    010E
....................          else c2++;
0010C:  INCF   1B,F
....................    }
0010E:  BRA    0112
....................    else c1++;
00110:  INCF   1A,F
00112:  BCF    F9E.1
00114:  GOTO   0060
.................... }
.................... 
.................... 
.................... void main()
*
00DC4:  CLRF   FF8
00DC6:  BCF    FD0.7
00DC8:  BSF    07.7
00DCA:  MOVLW  70
00DCC:  MOVWF  FD3
00DCE:  CLRF   F9B
00DD0:  MOVF   FD3,W
00DD2:  BSF    19.0
00DD4:  BCF    19.1
00DD6:  BCF    19.2
00DD8:  BCF    19.3
00DDA:  CLRF   1A
00DDC:  CLRF   1B
00DDE:  CLRF   1C
00DE0:  MOVLW  4B
00DE2:  MOVWF  1D
00DE4:  MOVLW  19
00DE6:  MOVWF  1E
00DE8:  MOVLW  4B
00DEA:  MOVWF  1F
00DEC:  MOVLW  19
00DEE:  MOVWF  20
00DF0:  CLRF   24
00DF2:  CLRF   23
00DF4:  CLRF   22
00DF6:  CLRF   21
00DF8:  CLRF   28
00DFA:  CLRF   27
00DFC:  CLRF   26
00DFE:  CLRF   25
00E00:  CLRF   29
00E02:  CLRF   2A
00E04:  CLRF   2C
00E06:  CLRF   2B
00E08:  MOVF   FC1,W
00E0A:  ANDLW  C0
00E0C:  IORLW  0F
00E0E:  MOVWF  FC1
00E10:  MOVLW  07
00E12:  MOVWF  FB4
.................... {
....................    setup_adc_ports(AN0_TO_AN1|VSS_VDD);
00E14:  MOVF   FC1,W
00E16:  ANDLW  C0
00E18:  IORLW  0D
00E1A:  MOVWF  FC1
....................    setup_adc(ADC_CLOCK_DIV_2|ADC_TAD_MUL_0);
00E1C:  MOVF   FC0,W
00E1E:  ANDLW  C0
00E20:  MOVWF  FC0
00E22:  BCF    FC0.7
00E24:  BSF    FC2.0
....................    setup_psp(PSP_DISABLED);
00E26:  BCF    F96.4
....................    setup_spi(SPI_SS_DISABLED);
00E28:  BCF    FC6.5
00E2A:  BCF    F94.5
00E2C:  BSF    F94.4
00E2E:  BCF    F94.3
00E30:  MOVLW  01
00E32:  MOVWF  FC6
00E34:  MOVLW  00
00E36:  MOVWF  FC7
....................    setup_wdt(WDT_OFF);
00E38:  BCF    FD1.0
....................    setup_timer_0(RTCC_INTERNAL);
00E3A:  MOVLW  80
00E3C:  MOVWF  FD5
....................    setup_timer_1(T1_DISABLED);
00E3E:  CLRF   FCD
....................    setup_timer_2(T2_DIV_BY_1,199,1);
00E40:  MOVLW  00
00E42:  IORLW  04
00E44:  MOVWF  FCA
00E46:  MOVLW  C7
00E48:  MOVWF  FCB
....................    setup_comparator(NC_NC_NC_NC);
00E4A:  MOVLW  07
00E4C:  MOVWF  FB4
00E4E:  MOVF   F92,W
00E50:  MOVWF  F92
00E52:  MOVLW  06
00E54:  MOVWF  00
00E56:  DECFSZ 00,F
00E58:  BRA    0E56
00E5A:  NOP   
00E5C:  MOVF   FB4,W
00E5E:  BCF    FA1.6
....................    setup_vref(FALSE);
00E60:  CLRF   FB5
....................    enable_interrupts(INT_TIMER2);
00E62:  BSF    F9D.1
....................    enable_interrupts(GLOBAL);
00E64:  MOVLW  C0
00E66:  IORWF  FF2,F
....................    setup_oscillator(OSC_8MHZ|OSC_INTRC|OSC_NORMAL|OSC_PLL_OFF);
00E68:  MOVLW  72
00E6A:  MOVWF  FD3
00E6C:  CLRF   F9B
00E6E:  MOVF   FD3,W
....................    
....................    lcd_init();
00E70:  GOTO   0216
....................    lcd_gotoxy(1,1);
00E74:  MOVLW  01
00E76:  MOVWF  47
00E78:  MOVWF  48
00E7A:  CALL   0264
....................    output_bit(PIN_B3,0);
00E7E:  BCF    F8A.3
00E80:  BCF    F93.3
....................    output_bit(PIN_B1,0);
00E82:  BCF    F8A.1
00E84:  BCF    F93.1
....................    output_bit(PIN_B4,0);
00E86:  BCF    F8A.4
00E88:  BCF    F93.4
....................    
....................    lcd_gotoxy(1,1);
00E8A:  MOVLW  01
00E8C:  MOVWF  47
00E8E:  MOVWF  48
00E90:  CALL   0264
....................    while(1){
....................    
....................       int8 but = CheckBut();
00E94:  MOVLW  64
00E96:  MOVWF  2F
00E98:  CALL   0286
00E9C:  MOVFF  01,2D
....................       if(on && tick){
00EA0:  BTFSS  19.0
00EA2:  BRA    0EB4
00EA4:  BTFSS  19.3
00EA6:  BRA    0EB4
....................          Update(but);
00EA8:  MOVFF  2D,2F
00EAC:  BRA    097C
....................          output_toggle(PIN_B4);
00EAE:  BCF    F93.4
00EB0:  BTG    F8A.4
....................       tick=0;
00EB2:  BCF    19.3
....................       }
.................... //!      else {
.................... //!      if(CheckBut(9) && !opressed){
.................... //!         on = 1;
.................... //!         opressed = 1;
.................... //!         
.................... //!         lcd_gotoxy(1,1);
.................... //!         printf(LCD_PUTC,"f");
.................... //!         printf(LCD_PUTC,"C: %f \nHumedad: %f%%", oldtemp, oldhum);
.................... //!      }}
....................       int1 onb=CheckBut(9);
00EB4:  MOVLW  09
00EB6:  MOVWF  2F
00EB8:  CALL   0286
00EBC:  BCF    2E.0
00EBE:  BTFSC  01.0
00EC0:  BSF    2E.0
....................       if(!opressed){
00EC2:  BTFSC  19.1
00EC4:  BRA    0ED0
....................          if(onb){
00EC6:  BTFSS  2E.0
00EC8:  BRA    0ECE
....................          on=!on;
00ECA:  BTG    19.0
....................          opressed = 1;
00ECC:  BSF    19.1
....................          }
....................       }
00ECE:  BRA    0ED6
....................       else if(!onb) opressed=0;
00ED0:  BTFSC  2E.0
00ED2:  BRA    0ED6
00ED4:  BCF    19.1
....................       if(but == 0 && pressed){
00ED6:  MOVF   2D,F
00ED8:  BNZ   0EE0
00EDA:  BTFSS  19.2
00EDC:  BRA    0EE0
....................          pressed = 0;
00EDE:  BCF    19.2
....................       }
00EE0:  BRA    0E94
....................       
....................    }
.................... 
.................... }
00EE2:  SLEEP 

Configuration Fuses:
   Word  1: C800   INTRC_IO FCMEN IESO
   Word  2: 0E19   NOPUT NOBROWNOUT BORV21 NOWDT WDT128
   Word  3: 8700   CCP2C1 PBADEN LPT1OSC MCLR
   Word  4: 0081   STVREN NOLVP NOXINST NODEBUG
   Word  5: C00F   NOPROTECT NOCPB NOCPD
   Word  6: E00F   NOWRT NOWRTC NOWRTB NOWRTD
   Word  7: 400F   NOEBTR NOEBTRB
